; Function Attrs: mustprogress uwtable
define noundef zeroext i1 @_ZN17DisplayFilterEdit11checkFilterEv(ptr noundef nonnull align 8 dereferenceable(352) %0) local_unnamed_addr #2 align 2 personality ptr @__gxx_personality_v0 {
  %2 = alloca %class.QString, align 8
  call void @_ZNK9QLineEdit4textEv(ptr dead_on_unwind nonnull writable sret(%class.QString) align 8 %2, ptr noundef nonnull align 8 dereferenceable(40) %0)
  invoke void @_ZN17DisplayFilterEdit11checkFilterERK7QString(ptr noundef nonnull align 8 dereferenceable(352) %0, ptr noundef nonnull align 8 dereferenceable(24) %2)
          to label %3 unwind label %11

3:                                                ; preds = %1
  %4 = load ptr, ptr %2, align 8
  %.not.i.i.i = icmp eq ptr %4, null
  br i1 %.not.i.i.i, label %_ZN7QStringD2Ev.exit, label %_ZN17QArrayDataPointerIDsE5derefEv.exit.i.i

_ZN17QArrayDataPointerIDsE5derefEv.exit.i.i:      ; preds = %3
  %5 = atomicrmw sub ptr %4, i32 1 seq_cst, align 4
  %.not.i.i = icmp eq i32 %5, 1
  br i1 %.not.i.i, label %6, label %_ZN7QStringD2Ev.exit

6:                                                ; preds = %_ZN17QArrayDataPointerIDsE5derefEv.exit.i.i
  %7 = load ptr, ptr %2, align 8
  call void @_ZN10QArrayData10deallocateEPS_xx(ptr noundef %7, i64 noundef 2, i64 noundef 8) #19
  br label %_ZN7QStringD2Ev.exit

_ZN7QStringD2Ev.exit:                             ; preds = %3, %_ZN17QArrayDataPointerIDsE5derefEv.exit.i.i, %6
  %8 = getelementptr inbounds i8, ptr %0, i64 56
  %9 = load i32, ptr %8, align 8
  %10 = icmp ne i32 %9, 2
  ret i1 %10

11:                                               ; preds = %1
  %12 = landingpad { ptr, i32 }
          cleanup
  %13 = load ptr, ptr %2, align 8
  %.not.i.i.i2 = icmp eq ptr %13, null
  br i1 %.not.i.i.i2, label %_ZN7QStringD2Ev.exit5, label %_ZN17QArrayDataPointerIDsE5derefEv.exit.i.i3

_ZN17QArrayDataPointerIDsE5derefEv.exit.i.i3:     ; preds = %11
  %14 = atomicrmw sub ptr %13, i32 1 seq_cst, align 4
  %.not.i.i4 = icmp eq i32 %14, 1
  br i1 %.not.i.i4, label %15, label %_ZN7QStringD2Ev.exit5

15:                                               ; preds = %_ZN17QArrayDataPointerIDsE5derefEv.exit.i.i3
  %16 = load ptr, ptr %2, align 8
  call void @_ZN10QArrayData10deallocateEPS_xx(ptr noundef %16, i64 noundef 2, i64 noundef 8) #19
  br label %_ZN7QStringD2Ev.exit5

_ZN7QStringD2Ev.exit5:                            ; preds = %11, %_ZN17QArrayDataPointerIDsE5derefEv.exit.i.i3, %15
  resume { ptr, i32 } %12
}